(lp1
(dp2
S'acc'
p3
F0.9342984409799554
sS'loss'
p4
S'l2'
p5
sS'C'
F0.10000000000000001
sa(dp6
g3
F0.92204899777282856
sg4
S'l1'
p7
sS'C'
F0.10000000000000001
sa(dp8
g3
F0.92650334075723828
sg4
g5
sS'C'
F0.5
sa(dp9
g3
F0.92427616926503342
sg4
g7
sS'C'
F0.5
sa(dp10
g3
F0.92093541202672602
sg4
g5
sS'C'
F1
sa(dp11
g3
F0.92427616926503342
sg4
g7
sS'C'
F1
sa.